; Function Attrs: nounwind uwtable
define hidden void @zif_apache_response_headers(ptr noundef readonly captures(none) %0, ptr noundef %1) #0 {
  %3 = getelementptr inbounds nuw i8, ptr %0, i64 44
  %4 = load i32, ptr %3, align 4, !tbaa !4
  %.not = icmp eq i32 %4, 0
  br i1 %.not, label %.critedge, label %5, !prof !7

5:                                                ; preds = %2
  tail call void @zend_wrong_parameters_none_error() #29
  %6 = load ptr, ptr getelementptr inbounds nuw (i8, ptr @executor_globals, i64 960), align 8, !tbaa !8
  %7 = icmp ne ptr %6, null
  tail call void @llvm.assume(i1 %7)
  br label %10

.critedge:                                        ; preds = %2
  %8 = tail call ptr @_zend_new_array_0() #29
  store ptr %8, ptr %1, align 8, !tbaa !4
  %9 = getelementptr inbounds nuw i8, ptr %1, i64 8
  store i32 775, ptr %9, align 8, !tbaa !4
  tail call void @zend_llist_apply_with_argument(ptr noundef nonnull getelementptr inbounds nuw (i8, ptr @sapi_globals, i64 160), ptr noundef nonnull @add_response_header, ptr noundef nonnull %1) #29
  br label %10

10:                                               ; preds = %.critedge, %5
  ret void
}